; Function Attrs: nounwind uwtable
define ptr @l_Lean_resolveLocalName___rarg(ptr noundef %0, ptr noundef %1, ptr noundef %2, ptr noundef %3, ptr noundef %4) #1 {
  %6 = getelementptr inbounds nuw i8, ptr %0, i64 16
  %7 = load ptr, ptr %6, align 8, !tbaa !9
  %8 = ptrtoint ptr %7 to i64
  %9 = and i64 %8, 1
  %.not = icmp eq i64 %9, 0
  br i1 %.not, label %10, label %lean_inc.exit21

10:                                               ; preds = %5
  %.val.i = load i32, ptr %7, align 4, !tbaa !4
  %11 = icmp sgt i32 %.val.i, 0
  br i1 %11, label %12, label %14, !prof !11

12:                                               ; preds = %10
  %13 = add nuw i32 %.val.i, 1
  store i32 %13, ptr %7, align 4, !tbaa !4
  br label %lean_inc.exit21

14:                                               ; preds = %10
  %.not.i = icmp eq i32 %.val.i, 0
  br i1 %.not.i, label %lean_inc.exit21, label %15

15:                                               ; preds = %14
  tail call void @lean_inc_ref_cold(ptr noundef nonnull %7) #6
  br label %lean_inc.exit21

lean_inc.exit21:                                  ; preds = %15, %14, %12, %5
  %16 = ptrtoint ptr %3 to i64
  %17 = and i64 %16, 1
  %.not28 = icmp eq i64 %17, 0
  br i1 %.not28, label %18, label %lean_inc.exit20

18:                                               ; preds = %lean_inc.exit21
  %.val.i22 = load i32, ptr %3, align 4, !tbaa !4
  %19 = icmp sgt i32 %.val.i22, 0
  br i1 %19, label %20, label %22, !prof !11

20:                                               ; preds = %18
  %21 = add nuw i32 %.val.i22, 1
  store i32 %21, ptr %3, align 4, !tbaa !4
  br label %lean_inc.exit20

22:                                               ; preds = %18
  %.not.i23 = icmp eq i32 %.val.i22, 0
  br i1 %.not.i23, label %lean_inc.exit20, label %23

23:                                               ; preds = %22
  tail call void @lean_inc_ref_cold(ptr noundef nonnull %3) #6
  br label %lean_inc.exit20

lean_inc.exit20:                                  ; preds = %23, %22, %20, %lean_inc.exit21
  br i1 %.not, label %24, label %lean_inc.exit

24:                                               ; preds = %lean_inc.exit20
  %.val.i25 = load i32, ptr %7, align 4, !tbaa !4
  %25 = icmp sgt i32 %.val.i25, 0
  br i1 %25, label %26, label %28, !prof !11

26:                                               ; preds = %24
  %27 = add nuw i32 %.val.i25, 1
  store i32 %27, ptr %7, align 4, !tbaa !4
  br label %lean_inc.exit

28:                                               ; preds = %24
  %.not.i26 = icmp eq i32 %.val.i25, 0
  br i1 %.not.i26, label %lean_inc.exit, label %29

29:                                               ; preds = %28
  tail call void @lean_inc_ref_cold(ptr noundef nonnull %7) #6
  br label %lean_inc.exit

lean_inc.exit:                                    ; preds = %29, %28, %26, %lean_inc.exit20
  tail call void @lean_inc_heartbeat() #6
  %30 = tail call noalias ptr @mi_malloc_small(i64 noundef 72) #6
  %31 = icmp eq ptr %30, null
  br i1 %31, label %32, label %lean_alloc_closure.exit

32:                                               ; preds = %lean_inc.exit
  tail call void @lean_internal_panic_out_of_memory() #7
  unreachable

lean_alloc_closure.exit:                          ; preds = %lean_inc.exit
  %33 = getelementptr inbounds nuw i8, ptr %30, i64 4
  store i32 1, ptr %30, align 4, !tbaa !4
  store i32 -184549304, ptr %33, align 4
  %34 = getelementptr inbounds nuw i8, ptr %30, i64 8
  store ptr @l_Lean_resolveLocalName___rarg___lambda__4, ptr %34, align 8, !tbaa !9
  %35 = getelementptr inbounds nuw i8, ptr %30, i64 16
  store i16 7, ptr %35, align 8, !tbaa !14
  %36 = getelementptr inbounds nuw i8, ptr %30, i64 18
  store i16 6, ptr %36, align 2, !tbaa !14
  %37 = getelementptr inbounds nuw i8, ptr %30, i64 24
  store ptr %1, ptr %37, align 8, !tbaa !9
  %38 = getelementptr inbounds nuw i8, ptr %30, i64 32
  store ptr %4, ptr %38, align 8, !tbaa !9
  %39 = getelementptr inbounds nuw i8, ptr %30, i64 40
  store ptr %0, ptr %39, align 8, !tbaa !9
  %40 = getelementptr inbounds nuw i8, ptr %30, i64 48
  store ptr %2, ptr %40, align 8, !tbaa !9
  %41 = getelementptr inbounds nuw i8, ptr %30, i64 56
  store ptr %7, ptr %41, align 8, !tbaa !9
  %42 = getelementptr inbounds nuw i8, ptr %30, i64 64
  store ptr %3, ptr %42, align 8, !tbaa !9
  %43 = tail call ptr @lean_apply_4(ptr noundef %7, ptr noundef nonnull inttoptr (i64 1 to ptr), ptr noundef nonnull inttoptr (i64 1 to ptr), ptr noundef %3, ptr noundef nonnull %30) #6
  ret ptr %43
}